; Function Attrs: null_pointer_is_valid sspstrong uwtable
define internal void @header_fields_add_to_col_info_tostr_cb(ptr noundef readonly captures(none) %0, ptr noundef writeonly captures(none) %1, ptr noundef writeonly captures(none) %2, ptr noundef readonly captures(none) %3, ptr readnone captures(none) %4) #0 {
  %6 = getelementptr inbounds nuw i8, ptr %3, i64 8
  %7 = load ptr, ptr %6, align 8
  %.not14 = icmp eq ptr %7, null
  br i1 %.not14, label %._crit_edge, label %.lr.ph

.lr.ph:                                           ; preds = %5
  %8 = getelementptr inbounds nuw i8, ptr %0, i64 20
  %9 = load i32, ptr %8, align 4
  %10 = load i32, ptr %3, align 8
  %11 = icmp eq i32 %10, %9
  br i1 %11, label %._crit_edge21, label %.lr.ph20

.lr.ph20:                                         ; preds = %.lr.ph, %17
  %.01519 = phi i32 [ %12, %17 ], [ 0, %.lr.ph ]
  %12 = add i32 %.01519, 1
  %13 = zext i32 %12 to i64
  %14 = getelementptr %struct._value_string, ptr %3, i64 %13
  %15 = getelementptr inbounds nuw i8, ptr %14, i64 8
  %16 = load ptr, ptr %15, align 8
  %.not = icmp eq ptr %16, null
  br i1 %.not, label %._crit_edge, label %17, !llvm.loop !12

17:                                               ; preds = %.lr.ph20
  %18 = load i32, ptr %14, align 8
  %19 = icmp eq i32 %18, %9
  br i1 %19, label %._crit_edge21, label %.lr.ph20, !llvm.loop !12

._crit_edge21:                                    ; preds = %17, %.lr.ph
  %.lcssa = phi ptr [ %7, %.lr.ph ], [ %16, %17 ]
  %20 = tail call noalias ptr @g_strdup(ptr noundef nonnull %.lcssa)
  store ptr %20, ptr %1, align 8
  %21 = tail call i64 @strlen(ptr noundef %20) #9
  %22 = trunc i64 %21 to i32
  br label %24

._crit_edge:                                      ; preds = %.lr.ph20, %5
  %23 = tail call noalias ptr @g_strdup(ptr noundef nonnull @.str.195)
  store ptr %23, ptr %1, align 8
  br label %24

24:                                               ; preds = %._crit_edge, %._crit_edge21
  %storemerge = phi i32 [ 2, %._crit_edge ], [ %22, %._crit_edge21 ]
  store i32 %storemerge, ptr %2, align 4
  ret void
}